; Function Attrs: nounwind uwtable
define internal fastcc void @write_styp(ptr noundef %0) unnamed_addr #0 {
  tail call void @avio_wb32(ptr noundef %0, i32 noundef 24) #17
  tail call void @avio_wl32(ptr noundef %0, i32 noundef 1887007859) #17
  tail call void @avio_wl32(ptr noundef %0, i32 noundef 1751413613) #17
  tail call void @avio_wb32(ptr noundef %0, i32 noundef 0) #17
  tail call void @avio_wl32(ptr noundef %0, i32 noundef 1751413613) #17
  tail call void @avio_wl32(ptr noundef %0, i32 noundef 2020176749) #17
  ret void
}